target datalayout = "e-m:e-p270:32:32-p271:32:32-p272:64:64-i64:64-i128:128-f80:128-n8:16:32:64-S128"
target triple = "x86_64-unknown-linux-gnu"

%struct.CRYPTO_EX_DATA_CLASS = type { %struct.CRYPTO_STATIC_MUTEX, ptr, i8 }
%struct.CRYPTO_STATIC_MUTEX = type { %union.pthread_rwlock_t }
%union.pthread_rwlock_t = type { %struct.__pthread_rwlock_arch_t }
%struct.__pthread_rwlock_arch_t = type { i32, i32, i32, i32, i32, i32, i32, i32, i8, [7 x i8], i64, i32 }
%struct.dsa_st = type { i64, ptr, ptr, ptr, ptr, ptr, ptr, ptr, i32, %union.crypto_mutex_st, ptr, i32, %struct.crypto_ex_data_st }
%union.crypto_mutex_st = type { double, [48 x i8] }
%struct.crypto_ex_data_st = type { ptr }

@g_ex_data_class = internal global %struct.CRYPTO_EX_DATA_CLASS zeroinitializer, align 8

; Function Attrs: nounwind uwtable
define hidden void @DSA_free(ptr noundef %dsa) #0 {
entry:
  %dsa.addr = alloca ptr, align 8
  store ptr %dsa, ptr %dsa.addr, align 8
  %0 = load ptr, ptr %dsa.addr, align 8
  %cmp = icmp eq ptr %0, null
  br i1 %cmp, label %if.then, label %if.end

if.then:                                          ; preds = %entry
  br label %return

if.end:                                           ; preds = %entry
  %1 = load ptr, ptr %dsa.addr, align 8
  %references = getelementptr inbounds %struct.dsa_st, ptr %1, i32 0, i32 11
  %call = call i32 @CRYPTO_refcount_dec_and_test_zero(ptr noundef %references)
  %tobool = icmp ne i32 %call, 0
  br i1 %tobool, label %if.end2, label %if.then1

if.then1:                                         ; preds = %if.end
  br label %return

if.end2:                                          ; preds = %if.end
  %2 = load ptr, ptr %dsa.addr, align 8
  %3 = load ptr, ptr %dsa.addr, align 8
  %ex_data = getelementptr inbounds %struct.dsa_st, ptr %3, i32 0, i32 12
  call void @CRYPTO_free_ex_data(ptr noundef @g_ex_data_class, ptr noundef %2, ptr noundef %ex_data)
  %4 = load ptr, ptr %dsa.addr, align 8
  %p = getelementptr inbounds %struct.dsa_st, ptr %4, i32 0, i32 1
  %5 = load ptr, ptr %p, align 8
  call void @BN_clear_free(ptr noundef %5)
  %6 = load ptr, ptr %dsa.addr, align 8
  %q = getelementptr inbounds %struct.dsa_st, ptr %6, i32 0, i32 2
  %7 = load ptr, ptr %q, align 8
  call void @BN_clear_free(ptr noundef %7)
  %8 = load ptr, ptr %dsa.addr, align 8
  %g = getelementptr inbounds %struct.dsa_st, ptr %8, i32 0, i32 3
  %9 = load ptr, ptr %g, align 8
  call void @BN_clear_free(ptr noundef %9)
  %10 = load ptr, ptr %dsa.addr, align 8
  %pub_key = getelementptr inbounds %struct.dsa_st, ptr %10, i32 0, i32 4
  %11 = load ptr, ptr %pub_key, align 8
  call void @BN_clear_free(ptr noundef %11)
  %12 = load ptr, ptr %dsa.addr, align 8
  %priv_key = getelementptr inbounds %struct.dsa_st, ptr %12, i32 0, i32 5
  %13 = load ptr, ptr %priv_key, align 8
  call void @BN_clear_free(ptr noundef %13)
  %14 = load ptr, ptr %dsa.addr, align 8
  %kinv = getelementptr inbounds %struct.dsa_st, ptr %14, i32 0, i32 6
  %15 = load ptr, ptr %kinv, align 8
  call void @BN_clear_free(ptr noundef %15)
  %16 = load ptr, ptr %dsa.addr, align 8
  %r = getelementptr inbounds %struct.dsa_st, ptr %16, i32 0, i32 7
  %17 = load ptr, ptr %r, align 8
  call void @BN_clear_free(ptr noundef %17)
  %18 = load ptr, ptr %dsa.addr, align 8
  %method_mont_p = getelementptr inbounds %struct.dsa_st, ptr %18, i32 0, i32 10
  %19 = load ptr, ptr %method_mont_p, align 8
  call void @BN_MONT_CTX_free(ptr noundef %19)
  %20 = load ptr, ptr %dsa.addr, align 8
  %method_mont_p_lock = getelementptr inbounds %struct.dsa_st, ptr %20, i32 0, i32 9
  call void @CRYPTO_MUTEX_cleanup(ptr noundef %method_mont_p_lock)
  %21 = load ptr, ptr %dsa.addr, align 8
  call void @free(ptr noundef %21) #8
  br label %return

return:                                           ; preds = %if.end2, %if.then1, %if.then
  ret void
}