; Function Attrs: nounwind uwtable
define hidden void @DSA_free(ptr noundef %dsa) local_unnamed_addr #0 {
entry:
  %cmp = icmp eq ptr %dsa, null
  br i1 %cmp, label %return, label %if.end

if.end:                                           ; preds = %entry
  %references = getelementptr inbounds nuw i8, ptr %dsa, i64 136
  %call = tail call i32 @CRYPTO_refcount_dec_and_test_zero(ptr noundef nonnull %references) #8
  %tobool.not = icmp eq i32 %call, 0
  br i1 %tobool.not, label %return, label %if.end2

if.end2:                                          ; preds = %if.end
  %ex_data = getelementptr inbounds nuw i8, ptr %dsa, i64 144
  tail call void @CRYPTO_free_ex_data(ptr noundef nonnull @g_ex_data_class, ptr noundef nonnull %dsa, ptr noundef nonnull %ex_data) #8
  %p = getelementptr inbounds nuw i8, ptr %dsa, i64 8
  %0 = load ptr, ptr %p, align 8
  tail call void @BN_clear_free(ptr noundef %0) #8
  %q = getelementptr inbounds nuw i8, ptr %dsa, i64 16
  %1 = load ptr, ptr %q, align 8
  tail call void @BN_clear_free(ptr noundef %1) #8
  %g = getelementptr inbounds nuw i8, ptr %dsa, i64 24
  %2 = load ptr, ptr %g, align 8
  tail call void @BN_clear_free(ptr noundef %2) #8
  %pub_key = getelementptr inbounds nuw i8, ptr %dsa, i64 32
  %3 = load ptr, ptr %pub_key, align 8
  tail call void @BN_clear_free(ptr noundef %3) #8
  %priv_key = getelementptr inbounds nuw i8, ptr %dsa, i64 40
  %4 = load ptr, ptr %priv_key, align 8
  tail call void @BN_clear_free(ptr noundef %4) #8
  %kinv = getelementptr inbounds nuw i8, ptr %dsa, i64 48
  %5 = load ptr, ptr %kinv, align 8
  tail call void @BN_clear_free(ptr noundef %5) #8
  %r = getelementptr inbounds nuw i8, ptr %dsa, i64 56
  %6 = load ptr, ptr %r, align 8
  tail call void @BN_clear_free(ptr noundef %6) #8
  %method_mont_p = getelementptr inbounds nuw i8, ptr %dsa, i64 128
  %7 = load ptr, ptr %method_mont_p, align 8
  tail call void @BN_MONT_CTX_free(ptr noundef %7) #8
  %method_mont_p_lock = getelementptr inbounds nuw i8, ptr %dsa, i64 72
  tail call void @CRYPTO_MUTEX_cleanup(ptr noundef nonnull %method_mont_p_lock) #8
  tail call void @free(ptr noundef nonnull %dsa) #8
  br label %return

return:                                           ; preds = %if.end, %entry, %if.end2
  ret void
}